(dp0
(I1
I2
I8
tp1
(lp2
I2
aI7
as(I4
I9
I7
tp3
(lp4
I2
as(I7
I1
I3
tp5
(lp6
I1
as(I1
I2
I10
tp7
(lp8
I8
as(I1
I7
I2
tp9
(lp10
I7
aI8
as(I6
I5
I9
tp11
(lp12
I1
aI4
as(I7
I1
I7
tp13
(lp14
I2
aI5
aI8
as(I4
I9
I10
tp15
(lp16
I3
aI8
as(I10
I3
I9
tp17
(lp18
I1
aI6
as(I6
I5
I7
tp19
(lp20
I5
as(I7
I1
I5
tp21
(lp22
I3
aI4
as(I4
I9
I4
tp23
(lp24
I5
aI9
aI10
as(I8
I5
I10
tp25
(lp26
I3
aI4
as(I1
I7
I6
tp27
(lp28
I2
aI9
as(I3
I10
I9
tp29
(lp30
I4
aI6
as(I9
I10
I1
tp31
(lp32
I3
aI6
as(I1
I7
I4
tp33
(lp34
I5
as(I6
I5
I3
tp35
(lp36
I5
aI10
as(I3
I2
I6
tp37
(lp38
I2
as(I10
I9
I7
tp39
(lp40
I2
as(I4
I6
I1
tp41
(lp42
I6
aI9
as(I1
I2
I4
tp43
(lp44
I5
aI10
as(I6
I5
I1
tp45
(lp46
I3
aI9
as(I3
I2
I4
tp47
(lp48
I9
as(I2
I3
I8
tp49
(lp50
I7
aI10
as(I10
I9
I5
tp51
(lp52
I3
aI4
as(I4
I6
I3
tp53
(lp54
I1
as(I5
I8
I9
tp55
(lp56
I4
aI6
as(I1
I2
I6
tp57
(lp58
I2
as(I8
I5
I7
tp59
(lp60
I2
aI5
as(I3
I2
I10
tp61
(lp62
I4
aI8
as(I9
I4
I5
tp63
(lp64
I4
as(I2
I3
I10
tp65
(lp66
I3
aI4
as(I7
I8
I3
tp67
(lp68
I1
aI10
as(I4
I6
I5
tp69
(lp70
I3
aI7
as(I3
I10
I3
tp71
(lp72
I1
aI5
aI10
as(I7
I8
I4
tp73
(lp74
I9
aI10
as(I6
I4
I8
tp75
(lp76
I10
as(I3
I2
I8
tp77
(lp78
I2
aI7
as(I2
I3
I4
tp79
(lp80
I5
aI10
as(I10
I9
I1
tp81
(lp82
I6
aI9
as(I4
I6
I7
tp83
(lp84
I2
as(I5
I8
I6
tp85
(lp86
I2
as(I5
I8
I5
tp87
(lp88
I3
aI4
aI7
as(I5
I6
I2
tp89
(lp90
I6
as(I6
I4
I10
tp91
(lp92
I4
as(I2
I3
I6
tp93
(lp94
I1
aI9
as(I4
I6
I9
tp95
(lp96
I1
aI6
as(I3
I10
I7
tp97
(lp98
I2
aI8
as(I5
I6
I4
tp99
(lp100
I9
aI10
as(I10
I9
I3
tp101
(lp102
I1
aI5
as(I8
I7
I6
tp103
(lp104
I1
aI2
aI9
as(I4
I9
I2
tp105
(lp106
I6
as(I9
I4
I2
tp107
(lp108
I7
aI8
as(I9
I10
I9
tp109
(lp110
I1
aI4
aI6
as(I3
I10
I5
tp111
(lp112
I4
aI7
as(I7
I8
I2
tp113
(lp114
I6
aI8
as(I6
I4
I6
tp115
(lp116
I1
aI2
aI9
as(I8
I7
I4
tp117
(lp118
I5
aI9
as(I2
I3
I2
tp119
(lp120
I6
aI7
aI8
as(I9
I4
I10
tp121
(lp122
I4
as(I5
I8
I7
tp123
(lp124
I2
aI8
as(I5
I6
I8
tp125
(lp126
I2
as(I8
I5
I9
tp127
(lp128
I4
as(I8
I7
I2
tp129
(lp130
I6
aI7
as(I2
I1
I9
tp131
(lp132
I1
as(I9
I4
I8
tp133
(lp134
I10
as(I5
I6
I10
tp135
(lp136
I3
aI4
as(I6
I4
I2
tp137
(lp138
I7
aI8
as(I8
I5
I1
tp139
(lp140
I3
aI9
as(I2
I1
I7
tp141
(lp142
I5
aI8
as(I2
I1
I5
tp143
(lp144
I3
aI4
as(I4
I9
I6
tp145
(lp146
I9
as(I10
I3
I4
tp147
(lp148
I5
aI9
as(I7
I8
I10
tp149
(lp150
I8
as(I7
I8
I5
tp151
(lp152
I3
aI4
as(I7
I1
I10
tp153
(lp154
I3
as(I2
I1
I3
tp155
(lp156
I1
as(I9
I10
I3
tp157
(lp158
I5
aI10
as(I10
I3
I6
tp159
(lp160
I1
as(I8
I7
I10
tp161
(lp162
I3
aI4
as(I7
I1
I8
tp163
(lp164
I2
aI10
as(I9
I10
I5
tp165
(lp166
I3
aI4
aI7
as(I5
I8
I3
tp167
(lp168
I1
aI10
as(I8
I7
I8
tp169
(lp170
I2
aI7
aI10
as(I3
I10
I1
tp171
(lp172
I6
aI9
as(I10
I3
I2
tp173
(lp174
I6
aI7
as(I7
I8
I6
tp175
(lp176
I1
aI2
aI9
as(I1
I2
I9
tp177
(lp178
I4
aI6
as(I6
I5
I10
tp179
(lp180
I3
aI4
as(I7
I1
I2
tp181
(lp182
I6
aI8
as(I8
I5
I3
tp183
(lp184
I1
aI5
as(I1
I7
I3
tp185
(lp186
I5
aI10
as(I6
I5
I8
tp187
(lp188
I7
as(I5
I8
I2
tp189
(lp190
I7
aI8
as(I10
I3
I8
tp191
(lp192
I2
aI7
as(I1
I7
I1
tp193
(lp194
I3
aI6
aI9
as(I6
I5
I6
tp195
(lp196
I1
aI2
aI9
as(I7
I8
I7
tp197
(lp198
I2
aI5
aI8
as(I7
I1
I6
tp199
(lp200
I1
aI9
as(I10
I9
I10
tp201
(lp202
I3
aI4
aI8
as(I10
I3
I10
tp203
(lp204
I3
aI4
aI8
as(I7
I8
I1
tp205
(lp206
I3
aI6
as(I6
I5
I4
tp207
(lp208
I5
aI10
as(I3
I2
I3
tp209
(lp210
I1
aI5
aI10
as(I7
I1
I4
tp211
(lp212
I9
as(I10
I9
I8
tp213
(lp214
I2
aI7
as(I3
I10
I8
tp215
(lp216
I10
as(I1
I2
I1
tp217
(lp218
I3
aI6
aI9
as(I1
I7
I5
tp219
(lp220
I7
as(I6
I5
I2
tp221
(lp222
I7
aI8
as(I3
I2
I1
tp223
(lp224
I6
aI9
as(I10
I9
I6
tp225
(lp226
I1
aI9
as(I5
I8
I10
tp227
(lp228
I8
as(I1
I2
I3
tp229
(lp230
I5
aI10
as(I8
I5
I4
tp231
(lp232
I5
as(I3
I2
I7
tp233
(lp234
I2
aI8
as(I10
I9
I4
tp235
(lp236
I5
aI9
as(I9
I4
I7
tp237
(lp238
I5
as(I1
I2
I5
tp239
(lp240
I7
as(I8
I5
I6
tp241
(lp242
I1
aI9
as(I3
I2
I5
tp243
(lp244
I4
aI7
as(I2
I3
I9
tp245
(lp246
I1
as(I10
I9
I2
tp247
(lp248
I6
as(I4
I6
I2
tp249
(lp250
I6
as(I3
I10
I2
tp251
(lp252
I8
as(I1
I2
I7
tp253
(lp254
I2
aI8
as(I6
I4
I9
tp255
(lp256
I1
aI4
as(I4
I9
I5
tp257
(lp258
I3
aI7
as(I4
I6
I4
tp259
(lp260
I5
aI9
aI10
as(I5
I8
I4
tp261
(lp262
I9
aI10
as(I5
I6
I1
tp263
(lp264
I6
aI9
as(I8
I5
I2
tp265
(lp266
I6
aI7
as(I3
I2
I9
tp267
(lp268
I6
as(I2
I3
I5
tp269
(lp270
I3
aI4
as(I9
I4
I1
tp271
(lp272
I3
aI6
as(I3
I10
I6
tp273
(lp274
I2
aI9
as(I5
I6
I3
tp275
(lp276
I1
aI10
as(I6
I4
I5
tp277
(lp278
I4
as(I4
I9
I1
tp279
(lp280
I6
aI9
as(I2
I3
I7
tp281
(lp282
I5
aI8
as(I4
I6
I8
tp283
(lp284
I2
as(I9
I10
I8
tp285
(lp286
I10
as(I3
I10
I4
tp287
(lp288
I10
as(I5
I6
I5
tp289
(lp290
I3
aI4
aI7
as(I6
I4
I7
tp291
(lp292
I5
aI8
as(I4
I9
I3
tp293
(lp294
I1
as(I2
I3
I1
tp295
(lp296
I3
as(I2
I1
I10
tp297
(lp298
I3
aI4
as(I4
I6
I10
tp299
(lp300
I3
aI8
as(I1
I7
I9
tp301
(lp302
I4
aI6
as(I5
I8
I1
tp303
(lp304
I6
aI9
as(I6
I4
I1
tp305
(lp306
I3
aI9
as(I8
I7
I5
tp307
(lp308
I7
as(I2
I1
I8
tp309
(lp310
I7
aI10
as(I5
I6
I9
tp311
(lp312
I1
aI6
as(I6
I4
I3
tp313
(lp314
I5
aI10
as(I8
I7
I3
tp315
(lp316
I1
aI5
as(I2
I1
I6
tp317
(lp318
I1
aI9
as(I9
I4
I9
tp319
(lp320
I1
aI4
aI6
as(I8
I7
I1
tp321
(lp322
I3
aI6
as(I2
I1
I4
tp323
(lp324
I9
as(I7
I8
I9
tp325
(lp326
I4
aI6
as(I5
I6
I7
tp327
(lp328
I2
aI8
as(I4
I9
I8
tp329
(lp330
I2
aI7
as(I2
I1
I2
tp331
(lp332
I6
aI7
aI8
as(I9
I10
I2
tp333
(lp334
I8
as(I10
I3
I5
tp335
(lp336
I3
as(I7
I1
I9
tp337
(lp338
I1
as(I9
I10
I7
tp339
(lp340
I8
as(I8
I5
I8
tp341
(lp342
I2
aI7
aI10
as(I9
I10
I4
tp343
(lp344
I5
aI10
as(I10
I3
I7
tp345
(lp346
I2
aI5
as(I1
I7
I10
tp347
(lp348
I4
aI8
as(I9
I4
I6
tp349
(lp350
I1
aI2
as(I9
I10
I6
tp351
(lp352
I1
aI2
as(I10
I3
I1
tp353
(lp354
I3
as(I1
I7
I8
tp355
(lp356
I7
as(I9
I4
I3
tp357
(lp358
I5
aI10
as(I8
I7
I9
tp359
(lp360
I4
aI6
as.