(dp0
(I1
I10
I1
tp1
(lp2
I8
as(I6
I8
I9
tp3
(lp4
I10
as(I1
I4
I2
tp5
(lp6
I4
as(I8
I5
I10
tp7
(lp8
I5
as(I4
I7
I4
tp9
(lp10
I3
as(I8
I6
I10
tp11
(lp12
I5
aI9
as(I7
I1
I7
tp13
(lp14
I1
as(I4
I1
I2
tp15
(lp16
I1
as(I7
I5
I9
tp17
(lp18
I6
aI10
as(I8
I3
I4
tp19
(lp20
I3
as(I7
I4
I3
tp21
(lp22
I4
as(I3
I8
I4
tp23
(lp24
I8
as(I8
I6
I8
tp25
(lp26
I4
aI10
as(I3
I9
I7
tp27
(lp28
I9
as(I8
I3
I8
tp29
(lp30
I4
as(I7
I5
I6
tp31
(lp32
I5
as(I7
I4
I7
tp33
(lp34
I3
as(I4
I6
I3
tp35
(lp36
I6
as(I1
I3
I7
tp37
(lp38
I3
as(I10
I1
I10
tp39
(lp40
I8
as(I9
I6
I9
tp41
(lp42
I6
as(I3
I9
I3
tp43
(lp44
I6
aI7
as(I10
I2
I10
tp45
(lp46
I5
as(I10
I1
I8
tp47
(lp48
I1
as(I7
I5
I2
tp49
(lp50
I5
as(I1
I5
I1
tp51
(lp52
I2
as(I5
I8
I5
tp53
(lp54
I10
as(I2
I9
I6
tp55
(lp56
I9
as(I5
I7
I9
tp57
(lp58
I7
as(I5
I1
I5
tp59
(lp60
I2
as(I9
I2
I7
tp61
(lp62
I1
as(I10
I7
I10
tp63
(lp64
I9
as(I9
I10
I9
tp65
(lp66
I10
as(I2
I9
I2
tp67
(lp68
I1
aI5
as(I6
I4
I6
tp69
(lp70
I3
as(I7
I10
I9
tp71
(lp72
I10
as(I5
I7
I5
tp73
(lp74
I2
aI6
aI10
as(I2
I10
I2
tp75
(lp76
I5
as(I9
I3
I9
tp77
(lp78
I6
aI7
as(I7
I5
I10
tp79
(lp80
I5
as(I5
I7
I3
tp81
(lp82
I7
as(I7
I10
I7
tp83
(lp84
I9
as(I9
I3
I7
tp85
(lp86
I3
as(I9
I2
I6
tp87
(lp88
I5
as(I5
I9
I5
tp89
(lp90
I6
aI10
as(I4
I5
I2
tp91
(lp92
I5
as(I5
I9
I10
tp93
(lp94
I9
as(I5
I7
I1
tp95
(lp96
I7
as(I4
I5
I4
tp97
(lp98
I2
as(I6
I7
I9
tp99
(lp100
I7
as(I2
I9
I10
tp101
(lp102
I9
as(I9
I2
I10
tp103
(lp104
I5
as(I5
I9
I6
tp105
(lp106
I9
as(I5
I4
I5
tp107
(lp108
I2
as(I8
I6
I5
tp109
(lp110
I6
as(I6
I8
I4
tp111
(lp112
I8
as(I4
I7
I3
tp113
(lp114
I7
as(I8
I4
I8
tp115
(lp116
I4
as(I6
I8
I6
tp117
(lp118
I3
aI5
aI9
as(I9
I5
I9
tp119
(lp120
I6
aI10
as(I3
I1
I7
tp121
(lp122
I1
as(I6
I7
I3
tp123
(lp124
I7
as(I8
I6
I3
tp125
(lp126
I6
as(I6
I8
I10
tp127
(lp128
I8
as(I1
I7
I1
tp129
(lp130
I7
as(I1
I4
I1
tp131
(lp132
I2
aI8
as(I10
I9
I10
tp133
(lp134
I9
as(I5
I10
I5
tp135
(lp136
I10
as(I4
I1
I4
tp137
(lp138
I2
aI8
as(I3
I1
I3
tp139
(lp140
I7
as(I1
I10
I8
tp141
(lp142
I10
as(I3
I8
I3
tp143
(lp144
I4
as(I8
I6
I9
tp145
(lp146
I6
as(I7
I6
I9
tp147
(lp148
I6
as(I1
I3
I1
tp149
(lp150
I7
as(I5
I8
I10
tp151
(lp152
I8
as(I7
I5
I7
tp153
(lp154
I1
aI3
aI9
as(I3
I9
I6
tp155
(lp156
I9
as(I10
I2
I5
tp157
(lp158
I2
as(I7
I5
I3
tp159
(lp160
I6
as(I7
I6
I3
tp161
(lp162
I6
as(I4
I6
I4
tp163
(lp164
I3
as(I7
I5
I1
tp165
(lp166
I2
as(I5
I7
I10
tp167
(lp168
I9
as(I4
I1
I8
tp169
(lp170
I1
as(I2
I9
I7
tp171
(lp172
I9
as(I1
I5
I2
tp173
(lp174
I5
as(I7
I6
I7
tp175
(lp176
I3
aI9
as(I6
I9
I6
tp177
(lp178
I9
as(I10
I7
I9
tp179
(lp180
I7
as(I2
I9
I5
tp181
(lp182
I6
aI10
as(I9
I2
I1
tp183
(lp184
I2
as(I5
I7
I6
tp185
(lp186
I3
aI9
as(I8
I5
I8
tp187
(lp188
I10
as(I9
I5
I10
tp189
(lp190
I5
as(I5
I4
I2
tp191
(lp192
I4
as(I2
I9
I1
tp193
(lp194
I7
as(I6
I4
I3
tp195
(lp196
I4
as(I9
I2
I5
tp197
(lp198
I2
as(I5
I7
I2
tp199
(lp200
I1
as(I9
I3
I6
tp201
(lp202
I3
as(I5
I1
I2
tp203
(lp204
I1
as(I9
I5
I6
tp205
(lp206
I5
as(I10
I5
I10
tp207
(lp208
I5
as(I2
I10
I5
tp209
(lp210
I10
as(I9
I2
I9
tp211
(lp212
I6
aI7
aI10
as(I6
I8
I3
tp213
(lp214
I4
as(I1
I4
I8
tp215
(lp216
I4
as(I6
I8
I5
tp217
(lp218
I10
as(I6
I7
I6
tp219
(lp220
I3
aI9
as(I8
I6
I4
tp221
(lp222
I3
as(I4
I8
I4
tp223
(lp224
I8
as.